ccollections
defaultdict
p0
(c__builtin__
dict
p1
tp2
Rp3
(I18
I8
F0.1
tp4
I0
s(I9
I-5
F0.1
tp5
I0
s(I8
I-8
F-0.1
tp6
I0
s(I17
I-6
F-0.1
tp7
I0
s(I5
I5
I0
tp8
I0
s(I7
I-5
F-1.5
tp9
I0
s(I2
I-6
F1.5
tp10
I0
s(I6
I8
F-0.1
tp11
I0
s(I18
I8
I0
tp12
I0
s(I5
I-2
F-0.1
tp13
I0
s(I7
I7
F-0.1
tp14
I0
s(I7
I-8
F0.1
tp15
I0
s(I6
I1
F-1.5
tp16
I0
s(I5
I-4
F0.1
tp17
I0
s(I18
I-7
F-0.1
tp18
I0
s(I1
I1
F1.5
tp19
I0
s(I1
I-2
F-1.5
tp20
I0
s(I11
I-4
F0.1
tp21
I0
s(I18
I3
F1.5
tp22
I0
s(I17
I-5
F-1.5
tp23
I0
s(I0
I-2
I0
tp24
I0
s(I13
I4
I0
tp25
I0
s(I8
I5
I0
tp26
I0
s(I11
I2
F-1.5
tp27
I0
s(I4
I-2
F0.1
tp28
I0
s(I11
I-2
F-0.1
tp29
I0
s(I4
I8
F-0.1
tp30
I0
s(I7
I3
F-1.5
tp31
I0
s(I13
I-7
F-1.5
tp32
I0
s(I16
I-8
I0
tp33
I0
s(I4
I4
F-0.1
tp34
I0
s(I11
I-3
F-1.5
tp35
I0
s(I8
I1
F-1.5
tp36
I0
s(I18
I6
F0.1
tp37
I0
s(I19
I-1
F0.1
tp38
I0
s(I2
I7
F-0.1
tp39
I0
s(I4
I-6
F-1.5
tp40
I0
s(I17
I4
F-1.5
tp41
I0
s(I17
I2
F1.5
tp42
I0
s(I7
I-5
I0
tp43
I0
s(I1
I1
F-1.5
tp44
I0
s(I3
I1
F-0.1
tp45
I0
s(I1
I6
F1.5
tp46
I0
s(I1
I8
F-1.5
tp47
I0
s(I16
I-4
I0
tp48
I0
s(I0
I7
F-0.1
tp49
I0
s(I18
I8
F1.5
tp50
I0
s(I1
I2
I0
tp51
I0
s(I14
I-2
F1.5
tp52
I0
s(I1
I4
F1.5
tp53
I0
s(I17
I-7
F1.5
tp54
I0
s(I15
I5
F-1.5
tp55
I0
s(I1
I-6
F-0.1
tp56
I0
s(I6
I6
F-0.1
tp57
I0
s(I7
I4
F-1.5
tp58
I0
s(I0
I-3
F1.5
tp59
I0
s(I6
I-6
F0.1
tp60
I0
s(I10
I1
F1.5
tp61
I0
s(I19
I6
I0
tp62
I0
s(I14
I-4
F-1.5
tp63
I0
s(I10
I6
F-0.1
tp64
I0
s(I13
I2
I0
tp65
I0
s(I17
I1
I0
tp66
I0
s(I0
I-7
F1.5
tp67
I0
s(I5
I-4
F-1.5
tp68
I0
s(I5
I8
F-1.5
tp69
I0
s(I17
I5
F1.5
tp70
I0
s(I1
I-6
F1.5
tp71
I0
s(I3
I3
I0
tp72
I0
s(I12
I-7
F-1.5
tp73
I0
s(I11
I7
F0.1
tp74
I0
s(I4
I1
F-0.1
tp75
I0
s(I3
I4
F1.5
tp76
I0
s(I12
I3
F1.5
tp77
I0
s(I7
I3
F0.1
tp78
I0
s(I3
I-5
I0
tp79
I0
s(I12
I7
F0.1
tp80
I0
s(I0
I3
F1.5
tp81
I0
s(I12
I-3
F0.1
tp82
I0
s(I1
I-5
F-0.1
tp83
I0
s(I17
I-4
F1.5
tp84
I0
s(I10
I4
F-1.5
tp85
I0
s(I4
I6
F1.5
tp86
I0
s(I0
I-2
F-0.1
tp87
I0
s(I3
I4
F-0.1
tp88
I0
s(I18
I-6
F1.5
tp89
I0
s(I9
I3
F-1.5
tp90
I0
s(I16
I-7
F0.1
tp91
I0
s(I4
I-5
F-0.1
tp92
I0
s(I13
I5
F-1.5
tp93
I0
s(I14
I2
F0.1
tp94
I0
s(I19
I5
F1.5
tp95
I0
s(I3
I8
F-1.5
tp96
I0
s(I0
I2
I0
tp97
I0
s(I16
I-5
F-1.5
tp98
I0
s(I15
I7
F0.1
tp99
I0
s(I14
I-1
F-0.1
tp100
I0
s(I14
I4
F-0.1
tp101
I0
s(I1
I-3
F-1.5
tp102
I0
s(I9
I-2
F-1.5
tp103
I0
s(I14
I6
F1.5
tp104
I0
s(I12
I2
I0
tp105
I0
s(I3
I5
I0
tp106
I0
s(I19
I-6
I0
tp107
I0
s(I16
I5
F0.1
tp108
I0
s(I6
I2
F-1.5
tp109
I0
s(I10
I-2
F-1.5
tp110
I0
s(I12
I1
F0.1
tp111
I0
s(I3
I2
F-0.1
tp112
I0
s(I16
I-6
F-0.1
tp113
I0
s(I11
I-3
I0
tp114
I0
s(I10
I2
F-0.1
tp115
I0
s(I0
I-3
F-0.1
tp116
I0
s(I13
I-7
I0
tp117
I0
s(I16
I6
F1.5
tp118
I0
s(I5
I-7
I0
tp119
I0
s(I1
I-1
F1.5
tp120
I0
s(I2
I3
F-1.5
tp121
I0
s(I17
I6
F0.1
tp122
I0
s(I8
I-1
I0
tp123
I0
s(I3
I-7
F1.5
tp124
I0
s(I13
I2
F0.1
tp125
I0
s(I7
I1
I0
tp126
I0
s(I1
I-2
F-0.1
tp127
I0
s(I19
I8
F1.5
tp128
I0
s(I2
I-1
F-0.1
tp129
I0
s(I8
I1
F1.5
tp130
I0
s(I0
I1
F-1.5
tp131
I0
s(I17
I-5
I0
tp132
I0
s(I14
I-3
F0.1
tp133
I0
s(I14
I-8
I0
tp134
I0
s(I5
I4
F-0.1
tp135
I0
s(I9
I5
F1.5
tp136
I0
s(I12
I8
F-0.1
tp137
I0
s(I8
I-3
F1.5
tp138
I0
s(I13
I-8
I0
tp139
I0
s(I6
I7
F-1.5
tp140
I0
s(I14
I2
F1.5
tp141
I0
s(I11
I6
I0
tp142
I0
s(I0
I2
F-0.1
tp143
I0
s(I8
I-7
I0
tp144
I0
s(I11
I3
F0.1
tp145
I0
s(I3
I-5
F0.1
tp146
I0
s(I6
I-3
F1.5
tp147
I0
s(I17
I4
F0.1
tp148
I0
s(I6
I3
F-0.1
tp149
I0
s(I1
I-8
F-0.1
tp150
I0
s(I7
I-5
F-0.1
tp151
I0
s(I3
I-7
F0.1
tp152
I0
s(I13
I3
F0.1
tp153
I0
s(I18
I-6
F-0.1
tp154
I0
s(I10
I1
F0.1
tp155
I0
s(I15
I-1
I0
tp156
I0
s(I8
I-1
F1.5
tp157
I0
s(I1
I5
I0
tp158
I0
s(I19
I-6
F-0.1
tp159
I0
s(I5
I-5
F-1.5
tp160
I0
s(I11
I2
F1.5
tp161
I0
s(I2
I-3
F-0.1
tp162
I0
s(I9
I3
I0
tp163
I0
s(I10
I5
I0
tp164
I0
s(I9
I5
F-1.5
tp165
I0
s(I19
I5
F-0.1
tp166
I0
s(I6
I5
F0.1
tp167
I0
s(I18
I5
I0
tp168
I0
s(I15
I-2
I0
tp169
I0
s(I8
I-4
F-0.1
tp170
I0
s(I4
I-8
F-1.5
tp171
I0
s(I2
I4
F0.1
tp172
I0
s(I7
I2
F-0.1
tp173
I0
s(I4
I8
F1.5
tp174
I0
s(I12
I-3
F-1.5
tp175
I0
s(I0
I-1
F0.1
tp176
I0
s(I9
I2
F-0.1
tp177
I0
s(I11
I5
F0.1
tp178
I0
s(I7
I-7
F-0.1
tp179
I0
s(I8
I7
F0.1
tp180
I0
s(I16
I1
F0.1
tp181
I0
s(I8
I7
F-0.1
tp182
I0
s(I2
I6
F-1.5
tp183
I0
s(I6
I-6
I0
tp184
I0
s(I18
I-5
F-1.5
tp185
I0
s(I4
I7
F-1.5
tp186
I0
s(I15
I8
F1.5
tp187
I0
s(I13
I-8
F-1.5
tp188
I0
s(I7
I2
F0.1
tp189
I0
s(I18
I-6
I0
tp190
I0
s(I12
I5
F0.1
tp191
I0
s(I15
I3
F0.1
tp192
I0
s(I6
I5
F-0.1
tp193
I0
s(I2
I8
I0
tp194
I0
s(I9
I-7
I0
tp195
I0
s(I14
I-5
F-0.1
tp196
I0
s(I19
I4
F-1.5
tp197
I0
s(I1
I3
F0.1
tp198
I0
s(I3
I1
F1.5
tp199
I0
s(I2
I-3
F0.1
tp200
I0
s(I3
I-3
F-1.5
tp201
I0
s(I0
I7
I0
tp202
I0
s(I19
I-6
F0.1
tp203
I0
s(I2
I4
F-0.1
tp204
I0
s(I12
I5
F1.5
tp205
I0
s(I10
I1
F-0.1
tp206
I0
s(I4
I2
F0.1
tp207
I0
s(I19
I3
F-0.1
tp208
I0
s(I0
I-1
F1.5
tp209
I0
s(I9
I7
I0
tp210
I0
s(I2
I6
F0.1
tp211
I0
s(I1
I-8
F0.1
tp212
I0
s(I18
I7
F-0.1
tp213
I0
s(I6
I4
F-0.1
tp214
I0
s(I17
I4
F-0.1
tp215
I0
s(I8
I-6
F-0.1
tp216
I0
s(I18
I7
F-1.5
tp217
I0
s(I6
I4
I0
tp218
I0
s(I2
I3
F1.5
tp219
I0
s(I10
I8
F-0.1
tp220
I0
s(I16
I-2
I0
tp221
I0
s(I8
I7
F1.5
tp222
I0
s(I10
I-4
F1.5
tp223
I0
s(I11
I4
F-0.1
tp224
I0
s(I12
I7
F-0.1
tp225
I0
s(I15
I6
F1.5
tp226
I0
s(I12
I-2
F-1.5
tp227
I0
s(I13
I7
I0
tp228
I0
s(I8
I2
F-1.5
tp229
I0
s(I11
I2
I0
tp230
I0
s(I9
I-6
F1.5
tp231
I0
s(I7
I-4
F1.5
tp232
I0
s(I17
I4
F1.5
tp233
I0
s(I5
I4
F0.1
tp234
I0
s(I17
I4
I0
tp235
I0
s(I14
I-3
F-0.1
tp236
I0
s(I0
I-2
F1.5
tp237
I0
s(I10
I-3
F1.5
tp238
I0
s(I3
I-6
I0
tp239
I0
s(I5
I5
F1.5
tp240
I0
s(I7
I-2
I0
tp241
I0
s(I3
I6
I0
tp242
I0
s(I1
I-5
I0
tp243
I0
s(I4
I7
F1.5
tp244
I0
s(I18
I-4
F-0.1
tp245
I0
s(I9
I-6
F-0.1
tp246
I0
s(I1
I-7
F0.1
tp247
I0
s(I4
I-5
F1.5
tp248
I0
s(I6
I-2
F0.1
tp249
I0
s(I1
I1
I0
tp250
I0
s(I4
I-7
F0.1
tp251
I0
s(I16
I-7
F1.5
tp252
I0
s(I7
I-2
F-1.5
tp253
I0
s(I9
I1
F-0.1
tp254
I0
s(I4
I-1
I0
tp255
I0
s(I5
I-1
F-0.1
tp256
I0
s(I16
I-4
F-0.1
tp257
I0
s(I16
I-3
F1.5
tp258
I0
s(I14
I-7
F-1.5
tp259
I0
s(I8
I5
F-1.5
tp260
I0
s(I14
I-4
F-0.1
tp261
I0
s(I10
I-7
F-1.5
tp262
I0
s(I11
I3
F-1.5
tp263
I0
s(I19
I5
I0
tp264
I0
s(I14
I-4
F1.5
tp265
I0
s(I6
I-6
F-1.5
tp266
I0
s(I17
I1
F-1.5
tp267
I0
s(I5
I8
I0
tp268
I0
s(I1
I-4
F1.5
tp269
I0
s(I19
I-5
F0.1
tp270
I0
s(I14
I6
F-1.5
tp271
I0
s(I4
I-7
I0
tp272
I0
s(I7
I-1
F0.1
tp273
I0
s(I14
I6
I0
tp274
I0
s(I15
I4
F-0.1
tp275
I0
s(I16
I6
F0.1
tp276
I0
s(I17
I-7
F-0.1
tp277
I0
s(I0
I-4
F1.5
tp278
I0
s(I8
I-3
I0
tp279
I0
s(I0
I5
F-0.1
tp280
I0
s(I14
I-6
F-0.1
tp281
I0
s(I10
I-4
F0.1
tp282
I0
s(I4
I-5
F0.1
tp283
I0
s(I4
I7
I0
tp284
I0
s(I10
I-5
F-1.5
tp285
I0
s(I17
I-1
F0.1
tp286
I0
s(I3
I5
F-0.1
tp287
I0
s(I4
I-8
I0
tp288
I0
s(I12
I-4
I0
tp289
I0
s(I0
I5
F0.1
tp290
I0
s(I13
I7
F1.5
tp291
I0
s(I12
I-2
I0
tp292
I0
s(I10
I1
I0
tp293
I0
s(I5
I1
F-0.1
tp294
I0
s(I19
I-4
F1.5
tp295
I0
s(I8
I-5
F0.1
tp296
I0
s(I15
I4
F0.1
tp297
I0
s(I5
I-8
F-0.1
tp298
I0
s(I12
I-4
F1.5
tp299
I0
s(I5
I3
F-1.5
tp300
I0
s(I0
I6
F-1.5
tp301
I0
s(I6
I4
F1.5
tp302
I0
s(I17
I5
F-0.1
tp303
I0
s(I15
I-6
F1.5
tp304
I0
s(I17
I-2
F-1.5
tp305
I0
s(I16
I3
I0
tp306
I0
s(I11
I-3
F1.5
tp307
I0
s(I14
I3
F1.5
tp308
I0
s(I9
I8
F1.5
tp309
I0
s(I19
I-7
F-1.5
tp310
I0
s(I6
I-1
F1.5
tp311
I0
s(I2
I2
F-0.1
tp312
I0
s(I17
I1
F0.1
tp313
I0
s(I10
I-6
F0.1
tp314
I0
s(I7
I8
I0
tp315
I0
s(I5
I-2
F0.1
tp316
I0
s(I12
I8
F-1.5
tp317
I0
s(I16
I-1
F0.1
tp318
I0
s(I15
I-6
F-1.5
tp319
I0
s(I13
I5
F0.1
tp320
I0
s(I4
I-7
F-0.1
tp321
I0
s(I9
I-3
F-1.5
tp322
I0
s(I9
I-6
F0.1
tp323
I0
s(I19
I8
I0
tp324
I0
s(I5
I-6
F-1.5
tp325
I0
s(I16
I3
F1.5
tp326
I0
s(I0
I1
I0
tp327
I0
s(I1
I-7
F1.5
tp328
I0
s(I0
I7
F0.1
tp329
I0
s(I13
I1
F-1.5
tp330
I0
s(I0
I-5
F-1.5
tp331
I0
s(I0
I7
F-1.5
tp332
I0
s(I18
I-8
F-0.1
tp333
I0
s(I3
I5
F-1.5
tp334
I0
s(I3
I2
I0
tp335
I0
s(I7
I4
F1.5
tp336
I0
s(I9
I4
F1.5
tp337
I0
s(I9
I5
F-0.1
tp338
I0
s(I14
I-5
I0
tp339
I0
s(I19
I-4
F-1.5
tp340
I0
s(I12
I5
I0
tp341
I0
s(I14
I-8
F-0.1
tp342
I0
s(I11
I-7
I0
tp343
I0
s(I11
I-6
I0
tp344
I0
s(I11
I4
F0.1
tp345
I0
s(I10
I2
F1.5
tp346
I0
s(I13
I-1
F-1.5
tp347
I0
s(I18
I3
F-1.5
tp348
I0
s(I8
I-6
F1.5
tp349
I0
s(I17
I-7
F0.1
tp350
I0
s(I13
I-5
F1.5
tp351
I0
s(I2
I6
I0
tp352
I0
s(I5
I4
F1.5
tp353
I0
s(I15
I2
F1.5
tp354
I0
s(I18
I7
F0.1
tp355
I0
s(I7
I-8
F1.5
tp356
I0
s(I6
I-1
F-1.5
tp357
I0
s(I18
I2
F0.1
tp358
I0
s(I5
I-4
F-0.1
tp359
I0
s(I12
I-7
F1.5
tp360
I0
s(I3
I3
F1.5
tp361
I0
s(I17
I-3
F-0.1
tp362
I0
s(I10
I-7
F1.5
tp363
I0
s(I15
I-7
F0.1
tp364
I0
s(I2
I5
F-1.5
tp365
I0
s(I1
I-2
F1.5
tp366
I0
s(I5
I1
F1.5
tp367
I0
s(I9
I-4
F-1.5
tp368
I0
s(I12
I6
F1.5
tp369
I0
s(I19
I-3
F0.1
tp370
I0
s(I11
I-5
F-1.5
tp371
I0
s(I11
I1
I0
tp372
I0
s(I14
I-5
F0.1
tp373
I0
s(I5
I-1
F0.1
tp374
I0
s(I17
I-1
F-1.5
tp375
I0
s(I7
I-7
F1.5
tp376
I0
s(I19
I-7
I0
tp377
I0
s(I11
I6
F0.1
tp378
I0
s(I12
I5
F-0.1
tp379
I0
s(I11
I3
F1.5
tp380
I0
s(I2
I5
F-0.1
tp381
I0
s(I8
I4
F0.1
tp382
I0
s(I13
I8
F-1.5
tp383
I0
s(I6
I-2
F1.5
tp384
I0
s(I2
I-1
I0
tp385
I0
s(I6
I2
F-0.1
tp386
I0
s(I2
I-8
I0
tp387
I0
s(I2
I-8
F-1.5
tp388
I0
s(I19
I2
F-0.1
tp389
I0
s(I7
I1
F0.1
tp390
I0
s(I8
I-8
F0.1
tp391
I0
s(I11
I-6
F-1.5
tp392
I0
s(I12
I-8
F-0.1
tp393
I0
s(I18
I6
I0
tp394
I0
s(I3
I6
F-0.1
tp395
I0
s(I8
I8
F-1.5
tp396
I0
s(I9
I2
F0.1
tp397
I0
s(I4
I-3
I0
tp398
I0
s(I18
I-3
F0.1
tp399
I0
s(I6
I7
F1.5
tp400
I0
s(I17
I5
F-1.5
tp401
I0
s(I18
I-2
F1.5
tp402
I0
s(I1
I2
F1.5
tp403
I0
s(I12
I-8
I0
tp404
I0
s(I4
I4
F-1.5
tp405
I0
s(I16
I-2
F0.1
tp406
I0
s(I9
I-5
F1.5
tp407
I0
s(I15
I7
F-0.1
tp408
I0
s(I9
I3
F0.1
tp409
I0
s(I13
I-7
F-0.1
tp410
I0
s(I0
I8
F-0.1
tp411
I0
s(I8
I7
F-1.5
tp412
I0
s(I9
I-3
I0
tp413
I0
s(I12
I3
F-1.5
tp414
I0
s(I17
I3
F-0.1
tp415
I0
s(I5
I7
F0.1
tp416
I0
s(I7
I5
I0
tp417
I0
s(I14
I-7
F0.1
tp418
I0
s(I16
I8
F-1.5
tp419
I0
s(I15
I6
I0
tp420
I0
s(I11
I-8
F1.5
tp421
I0
s(I4
I3
F-1.5
tp422
I0
s(I15
I5
F-0.1
tp423
I0
s(I2
I-5
I0
tp424
I0
s(I6
I3
F0.1
tp425
I0
s(I18
I-2
F-1.5
tp426
I0
s(I16
I-1
F1.5
tp427
I0
s(I13
I3
F1.5
tp428
I0
s(I5
I6
F-1.5
tp429
I0
s(I15
I-3
F0.1
tp430
I0
s(I16
I-1
I0
tp431
I0
s(I0
I-1
F-1.5
tp432
I0
s(I6
I-3
I0
tp433
I0
s(I1
I-4
F-0.1
tp434
I0
s(I12
I-8
F-1.5
tp435
I0
s(I19
I-7
F0.1
tp436
I0
s(I19
I1
F-1.5
tp437
I0
s(I14
I7
F-1.5
tp438
I0
s(I7
I-3
F-0.1
tp439
I0
s(I13
I4
F0.1
tp440
I0
s(I9
I-1
F1.5
tp441
I0
s(I16
I7
F-1.5
tp442
I0
s(I3
I-8
F1.5
tp443
I0
s(I19
I8
F-1.5
tp444
I0
s(I0
I2
F1.5
tp445
I0
s(I18
I4
F0.1
tp446
I0
s(I9
I-2
F-0.1
tp447
I0
s(I15
I7
F-1.5
tp448
I0
s(I17
I7
I0
tp449
I0
s(I3
I-1
F1.5
tp450
I0
s(I1
I-2
F0.1
tp451
I0
s(I0
I-5
I0
tp452
I0
s(I5
I-6
F1.5
tp453
I0
s(I13
I2
F-0.1
tp454
I0
s(I13
I-2
F1.5
tp455
I0
s(I7
I-3
F1.5
tp456
I0
s(I6
I1
F0.1
tp457
I0
s(I6
I3
I0
tp458
I0
s(I3
I5
F1.5
tp459
I0
s(I8
I5
F0.1
tp460
I0
s(I5
I7
I0
tp461
I0
s(I5
I1
F-1.5
tp462
I0
s(I0
I-3
F0.1
tp463
I0
s(I16
I-6
I0
tp464
I0
s(I12
I1
F-0.1
tp465
I0
s(I6
I-4
F-1.5
tp466
I0
s(I12
I1
F-1.5
tp467
I0
s(I10
I2
F-1.5
tp468
I0
s(I16
I5
F-0.1
tp469
I0
s(I12
I-7
I0
tp470
I0
s(I11
I-5
F-0.1
tp471
I0
s(I1
I3
F-1.5
tp472
I0
s(I7
I-2
F-0.1
tp473
I0
s(I10
I4
F0.1
tp474
I0
s(I18
I5
F1.5
tp475
I0
s(I14
I-6
I0
tp476
I0
s(I13
I-6
I0
tp477
I0
s(I19
I-5
F1.5
tp478
I0
s(I2
I2
F-1.5
tp479
I0
s(I7
I3
F-0.1
tp480
I0
s(I7
I1
F1.5
tp481
I0
s(I4
I-1
F-1.5
tp482
I0
s(I11
I8
F1.5
tp483
I0
s(I2
I-2
F-0.1
tp484
I0
s(I10
I-2
I0
tp485
I0
s(I0
I4
F-0.1
tp486
I0
s(I14
I4
F-1.5
tp487
I0
s(I3
I4
F0.1
tp488
I0
s(I19
I-4
I0
tp489
I0
s(I19
I1
F0.1
tp490
I0
s(I18
I1
F-0.1
tp491
I0
s(I12
I-3
F-0.1
tp492
I0
s(I12
I5
F-1.5
tp493
I0
s(I16
I3
F-0.1
tp494
I0
s(I8
I2
F0.1
tp495
I0
s(I10
I-4
F-1.5
tp496
I0
s(I6
I-4
F-0.1
tp497
I0
s(I14
I-5
F1.5
tp498
I0
s(I3
I-8
F-1.5
tp499
I0
s(I4
I1
F0.1
tp500
I0
s(I1
I-4
F-1.5
tp501
I0
s(I1
I1
F0.1
tp502
I0
s(I17
I-8
F-1.5
tp503
I0
s(I2
I-2
F1.5
tp504
I0
s(I17
I-3
I0
tp505
I0
s(I3
I-5
F-1.5
tp506
I0
s(I11
I7
F-1.5
tp507
I0
s(I19
I-3
F1.5
tp508
I0
s(I7
I3
I0
tp509
I0
s(I10
I3
F-1.5
tp510
I0
s(I8
I-8
F-1.5
tp511
I0
s(I16
I-2
F-1.5
tp512
I0
s(I10
I-7
F0.1
tp513
I0
s(I5
I3
F-0.1
tp514
I0
s(I15
I-2
F-0.1
tp515
I0
s(I16
I7
F1.5
tp516
I0
s(I7
I-4
I0
tp517
I0
s(I14
I8
F0.1
tp518
I0
s(I11
I-1
F1.5
tp519
I0
s(I5
I6
I0
tp520
I0
s(I0
I3
F-1.5
tp521
I0
s(I11
I7
F-0.1
tp522
I0
s(I2
I-6
F0.1
tp523
I0
s(I17
I-7
I0
tp524
I0
s(I5
I-8
F0.1
tp525
I0
s(I9
I7
F-0.1
tp526
I0
s(I18
I5
F-0.1
tp527
I0
s(I11
I-1
F-0.1
tp528
I0
s(I1
I6
F-1.5
tp529
I0
s(I1
I-6
F0.1
tp530
I0
s(I17
I7
F1.5
tp531
I0
s(I16
I-2
F1.5
tp532
I0
s(I5
I-4
I0
tp533
I0
s(I1
I-1
I0
tp534
I0
s(I10
I4
I0
tp535
I0
s(I15
I-7
F-1.5
tp536
I0
s(I14
I-3
I0
tp537
I0
s(I4
I3
F0.1
tp538
I0
s(I1
I7
F0.1
tp539
I0
s(I7
I1
F-1.5
tp540
I0
s(I11
I-6
F1.5
tp541
I0
s(I17
I-2
F1.5
tp542
I0
s(I13
I2
F1.5
tp543
I0
s(I5
I-5
F-0.1
tp544
I0
s(I2
I7
F0.1
tp545
I0
s(I8
I-3
F-1.5
tp546
I0
s(I18
I-8
F0.1
tp547
I0
s(I16
I6
I0
tp548
I0
s(I13
I7
F-1.5
tp549
I0
s(I18
I-6
F-1.5
tp550
I0
s(I2
I-7
F-1.5
tp551
I0
s(I11
I4
I0
tp552
I0
s(I19
I3
F1.5
tp553
I0
s(I9
I-6
F-1.5
tp554
I0
s(I9
I3
F1.5
tp555
I0
s(I18
I1
F0.1
tp556
I0
s(I13
I-2
I0
tp557
I0
s(I9
I-3
F0.1
tp558
I0
s(I11
I-4
F-0.1
tp559
I0
s(I19
I5
F-1.5
tp560
I0
s(I18
I-7
I0
tp561
I0
s(I7
I-2
F0.1
tp562
I0
s(I18
I3
I0
tp563
I0
s(I12
I4
F-0.1
tp564
I0
s(I7
I-8
F-0.1
tp565
I0
s(I3
I-4
F1.5
tp566
I0
s(I0
I6
F1.5
tp567
I0
s(I0
I-4
F-0.1
tp568
I0
s(I16
I8
F1.5
tp569
I0
s(I12
I8
F1.5
tp570
I0
s(I6
I-5
F-1.5
tp571
I0
s(I4
I1
F-1.5
tp572
I0
s(I18
I-8
I0
tp573
I0
s(I15
I6
F-0.1
tp574
I0
s(I2
I6
F1.5
tp575
I0
s(I2
I-1
F-1.5
tp576
I0
s(I16
I8
F0.1
tp577
I0
s(I18
I6
F-1.5
tp578
I0
s(I13
I2
F-1.5
tp579
I0
s(I6
I7
I0
tp580
I0
s(I13
I5
F-0.1
tp581
I0
s(I16
I4
F0.1
tp582
I0
s(I7
I4
F-0.1
tp583
I0
s(I6
I-2
F-1.5
tp584
I0
s(I19
I6
F1.5
tp585
I0
s(I18
I-1
F-1.5
tp586
I0
s(I16
I-1
F-0.1
tp587
I0
s(I16
I-1
F-1.5
tp588
I0
s(I9
I6
F-0.1
tp589
I0
s(I8
I1
F-0.1
tp590
I0
s(I15
I7
I0
tp591
I0
s(I14
I1
F-0.1
tp592
I0
s(I17
I2
F0.1
tp593
I0
s(I18
I-1
I0
tp594
I0
s(I10
I-3
F0.1
tp595
I0
s(I7
I-3
F-1.5
tp596
I0
s(I2
I-3
F-1.5
tp597
I0
s(I19
I-8
F-0.1
tp598
I0
s(I13
I6
F0.1
tp599
I0
s(I10
I-4
I0
tp600
I0
s(I8
I-3
F0.1
tp601
I0
s(I1
I8
F-0.1
tp602
I0
s(I6
I1
F1.5
tp603
I0
s(I12
I2
F0.1
tp604
I0
s(I15
I-4
F-0.1
tp605
I0
s(I5
I6
F1.5
tp606
I0
s(I18
I-2
F-0.1
tp607
I0
s(I15
I2
I0
tp608
I0
s(I5
I-4
F1.5
tp609
I0
s(I4
I-6
F1.5
tp610
I0
s(I13
I5
I0
tp611
I0
s(I8
I4
F1.5
tp612
I0
s(I0
I3
F-0.1
tp613
I0
s(I9
I-8
F-1.5
tp614
I0
s(I5
I-3
F1.5
tp615
I0
s(I15
I-4
I0
tp616
I0
s(I8
I4
F-1.5
tp617
I0
s(I17
I-3
F0.1
tp618
I0
s(I18
I-8
F1.5
tp619
I0
s(I12
I-4
F0.1
tp620
I0
s(I18
I-5
F0.1
tp621
I0
s(I11
I-7
F-0.1
tp622
I0
s(I9
I-7
F-0.1
tp623
I0
s(I10
I-5
F0.1
tp624
I0
s(I17
I2
F-1.5
tp625
I0
s(I6
I7
F-0.1
tp626
I0
s(I16
I-8
F0.1
tp627
I0
s(I13
I1
F-0.1
tp628
I0
s(I7
I-8
I0
tp629
I0
s(I9
I7
F1.5
tp630
I0
s(I3
I8
I0
tp631
I0
s(I16
I-8
F-0.1
tp632
I0
s(I5
I1
F0.1
tp633
I0
s(I9
I-2
I0
tp634
I0
s(I17
I-4
F-1.5
tp635
I0
s(I10
I5
F0.1
tp636
I0
s(I14
I1
F1.5
tp637
I0
s(I11
I-7
F0.1
tp638
I0
s(I12
I4
I0
tp639
I0
s(I6
I8
I0
tp640
I0
s(I1
I7
I0
tp641
I0
s(I18
I2
F1.5
tp642
I0
s(I19
I-2
F-0.1
tp643
I0
s(I16
I-5
I0
tp644
I0
s(I12
I-4
F-0.1
tp645
I0
s(I6
I-1
I0
tp646
I0
s(I8
I-4
I0
tp647
I0
s(I2
I8
F-1.5
tp648
I0
s(I19
I-6
F1.5
tp649
I0
s(I2
I8
F1.5
tp650
I0
s(I13
I-6
F-1.5
tp651
I0
s(I4
I6
I0
tp652
I0
s(I19
I7
I0
tp653
I0
s(I14
I-8
F0.1
tp654
I0
s(I2
I-2
I0
tp655
I0
s(I8
I6
I0
tp656
I0
s(I10
I1
F-1.5
tp657
I0
s(I18
I-2
F0.1
tp658
I0
s(I13
I8
I0
tp659
I0
s(I17
I2
I0
tp660
I0
s(I0
I6
F-0.1
tp661
I0
s(I5
I-8
F-1.5
tp662
I0
s(I15
I2
F-0.1
tp663
I0
s(I5
I-3
F-1.5
tp664
I0
s(I8
I3
F0.1
tp665
I0
s(I12
I-1
F-1.5
tp666
I0
s(I6
I-4
I0
tp667
I0
s(I13
I-8
F0.1
tp668
I0
s(I19
I6
F-0.1
tp669
I0
s(I14
I8
I0
tp670
I0
s(I3
I-5
F1.5
tp671
I0
s(I13
I-3
F0.1
tp672
I0
s(I2
I-8
F1.5
tp673
I0
s(I10
I3
F0.1
tp674
I0
s(I19
I8
F-0.1
tp675
I0
s(I17
I-4
F0.1
tp676
I0
s(I1
I5
F1.5
tp677
I0
s(I15
I-5
F1.5
tp678
I0
s(I12
I2
F1.5
tp679
I0
s(I16
I2
F-1.5
tp680
I0
s(I10
I-7
I0
tp681
I0
s(I19
I8
F0.1
tp682
I0
s(I9
I8
F-0.1
tp683
I0
s(I7
I-6
F-0.1
tp684
I0
s(I16
I4
F-0.1
tp685
I0
s(I10
I7
F1.5
tp686
I0
s(I6
I-7
I0
tp687
I0
s(I16
I8
F-0.1
tp688
I0
s(I12
I-1
F1.5
tp689
I0
s(I14
I-1
I0
tp690
I0
s(I2
I5
F1.5
tp691
I0
s(I13
I-5
I0
tp692
I0
s(I2
I-4
F0.1
tp693
I0
s(I15
I-8
F-0.1
tp694
I0
s(I8
I5
F1.5
tp695
I0
s(I9
I-2
F1.5
tp696
I0
s(I10
I-1
F1.5
tp697
I0
s(I3
I-2
F1.5
tp698
I0
s(I19
I7
F-0.1
tp699
I0
s(I10
I-8
I0
tp700
I0
s(I5
I-3
F-0.1
tp701
I0
s(I13
I8
F0.1
tp702
I0
s(I0
I-4
F0.1
tp703
I0
s(I17
I6
F1.5
tp704
I0
s(I11
I6
F-1.5
tp705
I0
s(I0
I-6
I0
tp706
I0
s(I3
I-1
F0.1
tp707
I0
s(I6
I-7
F-0.1
tp708
I0
s(I5
I1
I0
tp709
I0
s(I3
I2
F1.5
tp710
I0
s(I7
I6
F-0.1
tp711
I0
s(I17
I-4
I0
tp712
I0
s(I14
I1
I0
tp713
I0
s(I19
I-3
F-1.5
tp714
I0
s(I14
I1
F-1.5
tp715
I0
s(I11
I2
F-0.1
tp716
I0
s(I12
I4
F1.5
tp717
I0
s(I3
I-1
F-1.5
tp718
I0
s(I19
I-5
I0
tp719
I0
s(I1
I6
I0
tp720
I0
s(I9
I4
F-1.5
tp721
I0
s(I17
I-3
F1.5
tp722
I0
s(I4
I5
F1.5
tp723
I0
s(I4
I3
I0
tp724
I0
s(I18
I2
F-1.5
tp725
I0
s(I5
I5
F0.1
tp726
I0
s(I16
I5
I0
tp727
I0
s(I2
I-7
F0.1
tp728
I0
s(I7
I-6
I0
tp729
I0
s(I19
I-1
F-0.1
tp730
I0
s(I16
I-5
F1.5
tp731
I0
s(I5
I-5
F0.1
tp732
I0
s(I15
I3
F1.5
tp733
I0
s(I19
I-1
F1.5
tp734
I0
s(I10
I-5
F1.5
tp735
I0
s(I11
I-2
F0.1
tp736
I0
s(I7
I6
F1.5
tp737
I0
s(I11
I1
F1.5
tp738
I0
s(I2
I8
F0.1
tp739
I0
s(I1
I7
F-0.1
tp740
I0
s(I4
I-3
F0.1
tp741
I0
s(I1
I-1
F-1.5
tp742
I0
s(I10
I-8
F-1.5
tp743
I0
s(I3
I8
F1.5
tp744
I0
s(I5
I2
I0
tp745
I0
s(I9
I-3
F-0.1
tp746
I0
s(I9
I6
F1.5
tp747
I0
s(I1
I4
F0.1
tp748
I0
s(I8
I-4
F-1.5
tp749
I0
s(I13
I-7
F1.5
tp750
I0
s(I1
I-8
F-1.5
tp751
I0
s(I0
I-6
F-1.5
tp752
I0
s(I17
I-2
I0
tp753
I0
s(I4
I4
I0
tp754
I0
s(I18
I-5
F-0.1
tp755
I0
s(I9
I7
F0.1
tp756
I0
s(I2
I8
F-0.1
tp757
I0
s(I5
I6
F0.1
tp758
I0
s(I15
I-4
F-1.5
tp759
I0
s(I2
I-6
F-0.1
tp760
I0
s(I13
I-2
F0.1
tp761
I0
s(I7
I-3
I0
tp762
I0
s(I5
I3
F0.1
tp763
I0
s(I17
I1
F1.5
tp764
I0
s(I10
I7
F0.1
tp765
I0
s(I7
I-5
F1.5
tp766
I0
s(I6
I-4
F1.5
tp767
I0
s(I8
I8
F1.5
tp768
I0
s(I11
I-5
I0
tp769
I0
s(I5
I-7
F0.1
tp770
I0
s(I4
I-2
I0
tp771
I0
s(I2
I3
I0
tp772
I0
s(I17
I6
F-1.5
tp773
I0
s(I0
I6
I0
tp774
I0
s(I1
I3
F1.5
tp775
I0
s(I18
I-7
F1.5
tp776
I0
s(I0
I8
F1.5
tp777
I0
s(I15
I-2
F0.1
tp778
I0
s(I11
I3
I0
tp779
I0
s(I14
I5
F1.5
tp780
I0
s(I14
I-6
F1.5
tp781
I0
s(I4
I-6
F0.1
tp782
I0
s(I16
I-3
F-0.1
tp783
I0
s(I14
I-4
I0
tp784
I0
s(I3
I-3
F-0.1
tp785
I0
s(I12
I3
F-0.1
tp786
I0
s(I6
I6
F1.5
tp787
I0
s(I0
I1
F0.1
tp788
I0
s(I19
I1
F-0.1
tp789
I0
s(I3
I-6
F0.1
tp790
I0
s(I0
I4
F0.1
tp791
I0
s(I16
I7
F-0.1
tp792
I0
s(I2
I-2
F0.1
tp793
I0
s(I5
I-5
F1.5
tp794
I0
s(I18
I4
I0
tp795
I0
s(I4
I2
F-1.5
tp796
I0
s(I19
I7
F0.1
tp797
I0
s(I6
I5
I0
tp798
I0
s(I2
I-6
F-1.5
tp799
I0
s(I2
I-4
F-0.1
tp800
I0
s(I9
I-6
I0
tp801
I0
s(I12
I4
F0.1
tp802
I0
s(I13
I4
F-1.5
tp803
I0
s(I4
I-3
F-1.5
tp804
I0
s(I18
I-3
I0
tp805
I0
s(I17
I8
F-0.1
tp806
I0
s(I16
I-5
F-0.1
tp807
I0
s(I9
I6
F-1.5
tp808
I0
s(I9
I8
I0
tp809
I0
s(I16
I1
F-0.1
tp810
I0
s(I16
I6
F-1.5
tp811
I0
s(I10
I8
I0
tp812
I0
s(I3
I-7
I0
tp813
I0
s(I0
I3
F0.1
tp814
I0
s(I0
I1
F1.5
tp815
I0
s(I9
I5
F0.1
tp816
I0
s(I2
I-1
F1.5
tp817
I0
s(I17
I-8
F-0.1
tp818
I0
s(I3
I7
F-0.1
tp819
I0
s(I6
I-3
F-1.5
tp820
I0
s(I0
I6
F0.1
tp821
I0
s(I1
I-1
F-0.1
tp822
I0
s(I8
I-5
I0
tp823
I0
s(I18
I-1
F0.1
tp824
I0
s(I10
I6
F0.1
tp825
I0
s(I13
I-4
F-0.1
tp826
I0
s(I6
I2
I0
tp827
I0
s(I0
I8
I0
tp828
I0
s(I15
I1
F1.5
tp829
I0
s(I10
I8
F-1.5
tp830
I0
s(I15
I-6
I0
tp831
I0
s(I0
I-1
I0
tp832
I0
s(I3
I6
F-1.5
tp833
I0
s(I16
I-7
F-1.5
tp834
I0
s(I13
I8
F1.5
tp835
I0
s(I8
I1
I0
tp836
I0
s(I13
I-6
F0.1
tp837
I0
s(I7
I-3
F0.1
tp838
I0
s(I9
I-5
F-1.5
tp839
I0
s(I3
I8
F0.1
tp840
I0
s(I19
I-7
F-0.1
tp841
I0
s(I1
I2
F-0.1
tp842
I0
s(I5
I-1
F1.5
tp843
I0
s(I5
I-3
F0.1
tp844
I0
s(I17
I5
I0
tp845
I0
s(I0
I-6
F0.1
tp846
I0
s(I0
I-3
I0
tp847
I0
s(I9
I8
F-1.5
tp848
I0
s(I5
I-8
F1.5
tp849
I0
s(I15
I-3
F-0.1
tp850
I0
s(I13
I-3
F-0.1
tp851
I0
s(I19
I-2
F1.5
tp852
I0
s(I9
I-7
F0.1
tp853
I0
s(I13
I-5
F-1.5
tp854
I0
s(I3
I7
F1.5
tp855
I0
s(I6
I-3
F0.1
tp856
I0
s(I8
I-6
F-1.5
tp857
I0
s(I2
I5
I0
tp858
I0
s(I15
I5
F0.1
tp859
I0
s(I2
I2
F1.5
tp860
I0
s(I4
I-3
F1.5
tp861
I0
s(I1
I2
F-1.5
tp862
I0
s(I16
I-8
F-1.5
tp863
I0
s(I16
I2
F0.1
tp864
I0
s(I14
I7
F0.1
tp865
I0
s(I5
I7
F-0.1
tp866
I0
s(I17
I3
F0.1
tp867
I0
s(I10
I-1
F-1.5
tp868
I0
s(I12
I-5
F-1.5
tp869
I0
s(I2
I1
F-0.1
tp870
I0
s(I0
I8
F0.1
tp871
I0
s(I9
I3
F-0.1
tp872
I0
s(I19
I2
I0
tp873
I0
s(I14
I-6
F-1.5
tp874
I0
s(I14
I-8
F-1.5
tp875
I0
s(I1
I-4
I0
tp876
I0
s(I12
I1
F1.5
tp877
I0
s(I17
I-7
F-1.5
tp878
I0
s(I11
I-2
F1.5
tp879
I0
s(I18
I3
F0.1
tp880
I0
s(I12
I-2
F1.5
tp881
I0
s(I9
I-4
F0.1
tp882
I0
s(I15
I4
I0
tp883
I0
s(I3
I-8
F-0.1
tp884
I0
s(I12
I-8
F0.1
tp885
I0
s(I11
I4
F-1.5
tp886
I0
s(I7
I1
F-0.1
tp887
I0
s(I19
I-4
F-0.1
tp888
I0
s(I16
I6
F-0.1
tp889
I0
s(I6
I2
F0.1
tp890
I0
s(I8
I4
F-0.1
tp891
I0
s(I2
I-5
F-0.1
tp892
I0
s(I16
I-4
F0.1
tp893
I0
s(I12
I-5
F-0.1
tp894
I0
s(I11
I-8
F0.1
tp895
I0
s(I16
I-4
F-1.5
tp896
I0
s(I12
I7
I0
tp897
I0
s(I4
I-6
F-0.1
tp898
I0
s(I10
I-6
F1.5
tp899
I0
s(I14
I5
F0.1
tp900
I0
s(I19
I-3
F-0.1
tp901
I0
s(I1
I7
F-1.5
tp902
I0
s(I15
I-5
F0.1
tp903
I0
s(I5
I-3
I0
tp904
I0
s(I15
I-7
F-0.1
tp905
I0
s(I10
I7
F-1.5
tp906
I0
s(I3
I-3
I0
tp907
I0
s(I9
I-8
F1.5
tp908
I0
s(I5
I2
F-0.1
tp909
I0
s(I3
I-1
I0
tp910
I0
s(I18
I2
F-0.1
tp911
I0
s(I7
I6
F-1.5
tp912
I0
s(I0
I-5
F1.5
tp913
I0
s(I5
I4
F-1.5
tp914
I0
s(I18
I-7
F0.1
tp915
I0
s(I9
I1
F0.1
tp916
I0
s(I0
I5
F1.5
tp917
I0
s(I15
I5
F1.5
tp918
I0
s(I15
I-4
F1.5
tp919
I0
s(I13
I-1
F0.1
tp920
I0
s(I19
I-8
I0
tp921
I0
s(I0
I8
F-1.5
tp922
I0
s(I14
I2
F-1.5
tp923
I0
s(I18
I-3
F-1.5
tp924
I0
s(I18
I-3
F1.5
tp925
I0
s(I11
I-6
F0.1
tp926
I0
s(I10
I8
F1.5
tp927
I0
s(I15
I-5
I0
tp928
I0
s(I9
I-5
I0
tp929
I0
s(I16
I2
F1.5
tp930
I0
s(I12
I-5
I0
tp931
I0
s(I1
I-6
I0
tp932
I0
s(I19
I2
F-1.5
tp933
I0
s(I4
I6
F-0.1
tp934
I0
s(I3
I-3
F1.5
tp935
I0
s(I7
I5
F-1.5
tp936
I0
s(I0
I5
F-1.5
tp937
I0
s(I18
I7
F1.5
tp938
I0
s(I0
I-7
F0.1
tp939
I0
s(I19
I-1
F-1.5
tp940
I0
s(I9
I4
F0.1
tp941
I0
s(I9
I1
I0
tp942
I0
s(I4
I7
F-0.1
tp943
I0
s(I19
I-7
F1.5
tp944
I0
s(I7
I7
F1.5
tp945
I0
s(I13
I-3
F-1.5
tp946
I0
s(I9
I1
F-1.5
tp947
I0
s(I10
I-6
F-0.1
tp948
I0
s(I2
I2
F0.1
tp949
I0
s(I5
I8
F-0.1
tp950
I0
s(I6
I6
F-1.5
tp951
I0
s(I13
I-4
I0
tp952
I0
s(I14
I8
F-0.1
tp953
I0
s(I11
I8
I0
tp954
I0
s(I4
I-2
F1.5
tp955
I0
s(I18
I1
I0
tp956
I0
s(I16
I-3
I0
tp957
I0
s(I15
I4
F1.5
tp958
I0
s(I6
I-7
F-1.5
tp959
I0
s(I1
I-3
F0.1
tp960
I0
s(I4
I3
F1.5
tp961
I0
s(I15
I-6
F0.1
tp962
I0
s(I2
I4
F1.5
tp963
I0
s(I5
I7
F1.5
tp964
I0
s(I0
I-5
F0.1
tp965
I0
s(I8
I2
F-0.1
tp966
I0
s(I12
I-7
F-0.1
tp967
I0
s(I3
I5
F0.1
tp968
I0
s(I10
I5
F1.5
tp969
I0
s(I2
I1
F-1.5
tp970
I0
s(I4
I-7
F-1.5
tp971
I0
s(I16
I5
F-1.5
tp972
I0
s(I7
I4
I0
tp973
I0
s(I4
I5
F0.1
tp974
I0
s(I7
I2
F1.5
tp975
I0
s(I2
I-5
F-1.5
tp976
I0
s(I14
I-6
F0.1
tp977
I0
s(I0
I-5
F-0.1
tp978
I0
s(I8
I3
I0
tp979
I0
s(I7
I7
F0.1
tp980
I0
s(I13
I1
F0.1
tp981
I0
s(I0
I5
I0
tp982
I0
s(I4
I-4
I0
tp983
I0
s(I5
I-2
F1.5
tp984
I0
s(I6
I6
I0
tp985
I0
s(I15
I-6
F-0.1
tp986
I0
s(I14
I-1
F-1.5
tp987
I0
s(I17
I3
F-1.5
tp988
I0
s(I3
I7
F0.1
tp989
I0
s(I10
I-8
F0.1
tp990
I0
s(I1
I8
F1.5
tp991
I0
s(I18
I-2
I0
tp992
I0
s(I16
I1
F1.5
tp993
I0
s(I11
I8
F-0.1
tp994
I0
s(I12
I-1
F-0.1
tp995
I0
s(I11
I-8
F-1.5
tp996
I0
s(I17
I-8
F1.5
tp997
I0
s(I13
I3
F-1.5
tp998
I0
s(I8
I6
F-1.5
tp999
I0
s(I11
I-2
I0
tp1000
I0
s(I9
I-1
F-1.5
tp1001
I0
s(I8
I-5
F-1.5
tp1002
I0
s(I5
I8
F0.1
tp1003
I0
s(I1
I-2
I0
tp1004
I0
s(I8
I-5
F1.5
tp1005
I0
s(I16
I4
I0
tp1006
I0
s(I11
I-7
F-1.5
tp1007
I0
s(I13
I3
I0
tp1008
I0
s(I4
I7
F0.1
tp1009
I0
s(I2
I-5
F1.5
tp1010
I0
s(I6
I-1
F-0.1
tp1011
I0
s(I4
I5
I0
tp1012
I0
s(I9
I4
F-0.1
tp1013
I0
s(I19
I1
F1.5
tp1014
I0
s(I7
I-6
F-1.5
tp1015
I0
s(I1
I5
F0.1
tp1016
I0
s(I5
I-7
F1.5
tp1017
I0
s(I1
I-7
F-1.5
tp1018
I0
s(I10
I3
I0
tp1019
I0
s(I1
I5
F-1.5
tp1020
I0
s(I3
I1
I0
tp1021
I0
s(I16
I-3
F-1.5
tp1022
I0
s(I14
I3
F-0.1
tp1023
I0
s(I3
I7
F-1.5
tp1024
I0
s(I5
I-6
F0.1
tp1025
I0
s(I15
I4
F-1.5
tp1026
I0
s(I7
I2
F-1.5
tp1027
I0
s(I12
I2
F-1.5
tp1028
I0
s(I7
I8
F0.1
tp1029
I0
s(I15
I-8
I0
tp1030
I0
s(I9
I-2
F0.1
tp1031
I0
s(I16
I1
F-1.5
tp1032
I0
s(I12
I-1
F0.1
tp1033
I0
s(I14
I-3
F1.5
tp1034
I0
s(I12
I-2
F-0.1
tp1035
I0
s(I6
I-8
I0
tp1036
I0
s(I18
I-7
F-1.5
tp1037
I0
s(I13
I4
F1.5
tp1038
I0
s(I0
I-6
F1.5
tp1039
I0
s(I2
I-6
I0
tp1040
I0
s(I5
I-5
I0
tp1041
I0
s(I3
I-2
F0.1
tp1042
I0
s(I9
I-1
I0
tp1043
I0
s(I15
I1
F-0.1
tp1044
I0
s(I1
I6
F0.1
tp1045
I0
s(I19
I4
F1.5
tp1046
I0
s(I2
I6
F-0.1
tp1047
I0
s(I15
I-3
F1.5
tp1048
I0
s(I3
I2
F-1.5
tp1049
I0
s(I19
I6
F-1.5
tp1050
I0
s(I19
I4
F0.1
tp1051
I0
s(I0
I-7
F-1.5
tp1052
I0
s(I3
I3
F-1.5
tp1053
I0
s(I2
I3
F0.1
tp1054
I0
s(I4
I2
F1.5
tp1055
I0
s(I1
I3
F-0.1
tp1056
I0
s(I15
I-5
F-0.1
tp1057
I0
s(I19
I-6
F-1.5
tp1058
I0
s(I8
I-2
F-1.5
tp1059
I0
s(I6
I3
F1.5
tp1060
I0
s(I10
I5
F-1.5
tp1061
I0
s(I14
I5
F-0.1
tp1062
I0
s(I12
I-8
F1.5
tp1063
I0
s(I11
I-1
F-1.5
tp1064
I0
s(I9
I5
I0
tp1065
I0
s(I6
I-5
F-0.1
tp1066
I0
s(I5
I-1
F-1.5
tp1067
I0
s(I12
I-5
F0.1
tp1068
I0
s(I19
I1
I0
tp1069
I0
s(I15
I8
F0.1
tp1070
I0
s(I1
I1
F-0.1
tp1071
I0
s(I7
I-4
F0.1
tp1072
I0
s(I18
I5
F-1.5
tp1073
I0
s(I8
I-7
F-0.1
tp1074
I0
s(I17
I8
I0
tp1075
I0
s(I8
I-7
F0.1
tp1076
I0
s(I7
I-7
F0.1
tp1077
I0
s(I11
I5
F-0.1
tp1078
I0
s(I9
I-4
F-0.1
tp1079
I0
s(I7
I-4
F-0.1
tp1080
I0
s(I15
I8
F-0.1
tp1081
I0
s(I8
I-4
F0.1
tp1082
I0
s(I5
I2
F-1.5
tp1083
I0
s(I15
I-8
F-1.5
tp1084
I0
s(I6
I-5
F0.1
tp1085
I0
s(I7
I-1
I0
tp1086
I0
s(I14
I7
I0
tp1087
I0
s(I14
I-8
F1.5
tp1088
I0
s(I17
I-1
I0
tp1089
I0
s(I19
I-3
I0
tp1090
I0
s(I19
I5
F0.1
tp1091
I0
s(I9
I1
F1.5
tp1092
I0
s(I12
I4
F-1.5
tp1093
I0
s(I10
I-5
I0
tp1094
I0
s(I2
I1
F0.1
tp1095
I0
s(I2
I3
F-0.1
tp1096
I0
s(I15
I1
F0.1
tp1097
I0
s(I5
I3
F1.5
tp1098
I0
s(I18
I4
F1.5
tp1099
I0
s(I19
I4
F-0.1
tp1100
I0
s(I16
I7
I0
tp1101
I0
s(I1
I-3
F1.5
tp1102
I0
s(I18
I-6
F0.1
tp1103
I0
s(I13
I3
F-0.1
tp1104
I0
s(I3
I-7
F-0.1
tp1105
I0
s(I15
I3
F-1.5
tp1106
I0
s(I19
I-8
F1.5
tp1107
I0
s(I1
I6
F-0.1
tp1108
I0
s(I3
I-8
I0
tp1109
I0
s(I19
I-2
I0
tp1110
I0
s(I11
I1
F-1.5
tp1111
I0
s(I6
I-3
F-0.1
tp1112
I0
s(I2
I4
I0
tp1113
I0
s(I13
I-4
F1.5
tp1114
I0
s(I17
I-6
F0.1
tp1115
I0
s(I8
I7
I0
tp1116
I0
s(I8
I4
I0
tp1117
I0
s(I11
I-8
I0
tp1118
I0
s(I5
I7
F-1.5
tp1119
I0
s(I0
I2
F-1.5
tp1120
I0
s(I8
I-7
F1.5
tp1121
I0
s(I5
I3
I0
tp1122
I0
s(I17
I-6
I0
tp1123
I0
s(I15
I3
I0
tp1124
I0
s(I8
I-1
F0.1
tp1125
I0
s(I9
I-1
F-0.1
tp1126
I0
s(I17
I7
F-1.5
tp1127
I0
s(I11
I7
I0
tp1128
I0
s(I12
I-4
F-1.5
tp1129
I0
s(I12
I6
F0.1
tp1130
I0
s(I7
I8
F-0.1
tp1131
I0
s(I9
I4
I0
tp1132
I0
s(I6
I-2
I0
tp1133
I0
s(I8
I-2
F1.5
tp1134
I0
s(I12
I8
F0.1
tp1135
I0
s(I5
I-6
F-0.1
tp1136
I0
s(I3
I-7
F-1.5
tp1137
I0
s(I14
I4
I0
tp1138
I0
s(I14
I3
F0.1
tp1139
I0
s(I15
I-2
F1.5
tp1140
I0
s(I1
I7
F1.5
tp1141
I0
s(I18
I1
F1.5
tp1142
I0
s(I18
I4
F-0.1
tp1143
I0
s(I4
I8
F-1.5
tp1144
I0
s(I13
I-4
F0.1
tp1145
I0
s(I4
I8
I0
tp1146
I0
s(I16
I8
I0
tp1147
I0
s(I4
I1
F1.5
tp1148
I0
s(I7
I6
I0
tp1149
I0
s(I7
I8
F-1.5
tp1150
I0
s(I13
I-7
F0.1
tp1151
I0
s(I2
I1
F1.5
tp1152
I0
s(I16
I-2
F-0.1
tp1153
I0
s(I17
I-8
F0.1
tp1154
I0
s(I2
I-3
F1.5
tp1155
I0
s(I8
I3
F1.5
tp1156
I0
s(I0
I-2
F0.1
tp1157
I0
s(I13
I5
F1.5
tp1158
I0
s(I11
I8
F-1.5
tp1159
I0
s(I10
I2
F0.1
tp1160
I0
s(I17
I1
F-0.1
tp1161
I0
s(I11
I5
F1.5
tp1162
I0
s(I3
I-4
F-0.1
tp1163
I0
s(I1
I-1
F0.1
tp1164
I0
s(I11
I4
F1.5
tp1165
I0
s(I8
I2
I0
tp1166
I0
s(I11
I8
F0.1
tp1167
I0
s(I16
I-5
F0.1
tp1168
I0
s(I14
I3
I0
tp1169
I0
s(I12
I-1
I0
tp1170
I0
s(I17
I8
F0.1
tp1171
I0
s(I3
I-4
F-1.5
tp1172
I0
s(I18
I2
I0
tp1173
I0
s(I4
I2
F-0.1
tp1174
I0
s(I4
I-7
F1.5
tp1175
I0
s(I16
I5
F1.5
tp1176
I0
s(I0
I-7
I0
tp1177
I0
s(I5
I-7
F-0.1
tp1178
I0
s(I17
I-5
F1.5
tp1179
I0
s(I6
I-6
F1.5
tp1180
I0
s(I4
I1
I0
tp1181
I0
s(I14
I2
F-0.1
tp1182
I0
s(I18
I-5
I0
tp1183
I0
s(I4
I5
F-0.1
tp1184
I0
s(I16
I7
F0.1
tp1185
I0
s(I3
I-6
F-0.1
tp1186
I0
s(I13
I-2
F-1.5
tp1187
I0
s(I1
I-5
F0.1
tp1188
I0
s(I10
I-4
F-0.1
tp1189
I0
s(I4
I-5
I0
tp1190
I0
s(I12
I3
F0.1
tp1191
I0
s(I0
I-3
F-1.5
tp1192
I0
s(I12
I-7
F0.1
tp1193
I0
s(I3
I7
I0
tp1194
I0
s(I16
I-8
F1.5
tp1195
I0
s(I1
I-8
F1.5
tp1196
I0
s(I16
I-6
F0.1
tp1197
I0
s(I3
I6
F1.5
tp1198
I0
s(I2
I-4
F1.5
tp1199
I0
s(I12
I7
F-1.5
tp1200
I0
s(I0
I-8
F-1.5
tp1201
I0
s(I17
I-8
I0
tp1202
I0
s(I6
I3
F-1.5
tp1203
I0
s(I4
I-1
F1.5
tp1204
I0
s(I8
I6
F-0.1
tp1205
I0
s(I17
I6
F-0.1
tp1206
I0
s(I13
I-4
F-1.5
tp1207
I0
s(I18
I1
F-1.5
tp1208
I0
s(I8
I-4
F1.5
tp1209
I0
s(I14
I-4
F0.1
tp1210
I0
s(I2
I4
F-1.5
tp1211
I0
s(I12
I-2
F0.1
tp1212
I0
s(I7
I-7
F-1.5
tp1213
I0
s(I4
I-4
F-1.5
tp1214
I0
s(I13
I6
F1.5
tp1215
I0
s(I8
I3
F-1.5
tp1216
I0
s(I19
I7
F1.5
tp1217
I0
s(I6
I-6
F-0.1
tp1218
I0
s(I9
I-7
F-1.5
tp1219
I0
s(I7
I-6
F1.5
tp1220
I0
s(I6
I6
F0.1
tp1221
I0
s(I1
I4
F-0.1
tp1222
I0
s(I1
I-7
F-0.1
tp1223
I0
s(I13
I-2
F-0.1
tp1224
I0
s(I18
I-4
F0.1
tp1225
I0
s(I1
I-7
I0
tp1226
I0
s(I0
I-7
F-0.1
tp1227
I0
s(I18
I-5
F1.5
tp1228
I0
s(I6
I4
F0.1
tp1229
I0
s(I17
I8
F-1.5
tp1230
I0
s(I3
I1
F0.1
tp1231
I0
s(I14
I-2
I0
tp1232
I0
s(I7
I-7
I0
tp1233
I0
s(I1
I-3
I0
tp1234
I0
s(I17
I-6
F-1.5
tp1235
I0
s(I10
I7
I0
tp1236
I0
s(I2
I-7
F-0.1
tp1237
I0
s(I16
I-6
F-1.5
tp1238
I0
s(I18
I6
F-0.1
tp1239
I0
s(I11
I5
I0
tp1240
I0
s(I4
I4
F0.1
tp1241
I0
s(I4
I-1
F0.1
tp1242
I0
s(I4
I8
F0.1
tp1243
I0
s(I11
I-4
F-1.5
tp1244
I0
s(I10
I8
F0.1
tp1245
I0
s(I8
I-6
F0.1
tp1246
I0
s(I19
I3
F0.1
tp1247
I0
s(I19
I4
I0
tp1248
I0
s(I13
I-1
F-0.1
tp1249
I0
s(I15
I-5
F-1.5
tp1250
I0
s(I14
I-2
F-1.5
tp1251
I0
s(I6
I-8
F-0.1
tp1252
I0
s(I11
I2
F0.1
tp1253
I0
s(I14
I-1
F0.1
tp1254
I0
s(I17
I3
I0
tp1255
I0
s(I5
I-2
F-1.5
tp1256
I0
s(I5
I-2
I0
tp1257
I0
s(I5
I2
F0.1
tp1258
I0
s(I14
I8
F-1.5
tp1259
I0
s(I15
I-2
F-1.5
tp1260
I0
s(I7
I6
F0.1
tp1261
I0
s(I10
I6
F1.5
tp1262
I0
s(I3
I-1
F-0.1
tp1263
I0
s(I14
I-7
F1.5
tp1264
I0
s(I13
I8
F-0.1
tp1265
I0
s(I17
I-1
F-0.1
tp1266
I0
s(I3
I1
F-1.5
tp1267
I0
s(I14
I8
F1.5
tp1268
I0
s(I6
I5
F1.5
tp1269
I0
s(I7
I7
F-1.5
tp1270
I0
s(I11
I-4
F1.5
tp1271
I0
s(I10
I4
F-0.1
tp1272
I0
s(I10
I6
F-1.5
tp1273
I0
s(I5
I-1
I0
tp1274
I0
s(I1
I8
I0
tp1275
I0
s(I15
I-3
I0
tp1276
I0
s(I12
I1
I0
tp1277
I0
s(I15
I2
F-1.5
tp1278
I0
s(I9
I-5
F-0.1
tp1279
I0
s(I10
I-8
F1.5
tp1280
I0
s(I15
I8
I0
tp1281
I0
s(I11
I-8
F-0.1
tp1282
I0
s(I15
I3
F-0.1
tp1283
I0
s(I2
I-7
F1.5
tp1284
I0
s(I4
I-8
F0.1
tp1285
I0
s(I2
I-5
F0.1
tp1286
I0
s(I2
I-3
I0
tp1287
I0
s(I7
I-6
F0.1
tp1288
I0
s(I2
I-8
F-0.1
tp1289
I0
s(I9
I8
F0.1
tp1290
I0
s(I18
I-4
F-1.5
tp1291
I0
s(I13
I1
F1.5
tp1292
I0
s(I4
I6
F0.1
tp1293
I0
s(I17
I-1
F1.5
tp1294
I0
s(I3
I-2
F-0.1
tp1295
I0
s(I19
I-4
F0.1
tp1296
I0
s(I15
I-1
F1.5
tp1297
I0
s(I3
I-8
F0.1
tp1298
I0
s(I11
I-3
F0.1
tp1299
I0
s(I17
I-4
F-0.1
tp1300
I0
s(I0
I2
F0.1
tp1301
I0
s(I18
I3
F-0.1
tp1302
I0
s(I10
I-2
F-0.1
tp1303
I0
s(I12
I-3
F1.5
tp1304
I0
s(I19
I6
F0.1
tp1305
I0
s(I12
I-6
F-1.5
tp1306
I0
s(I13
I-8
F-0.1
tp1307
I0
s(I19
I3
F-1.5
tp1308
I0
s(I17
I-2
F0.1
tp1309
I0
s(I5
I2
F1.5
tp1310
I0
s(I0
I7
F1.5
tp1311
I0
s(I8
I3
F-0.1
tp1312
I0
s(I17
I-3
F-1.5
tp1313
I0
s(I15
I2
F0.1
tp1314
I0
s(I3
I-6
F1.5
tp1315
I0
s(I2
I-8
F0.1
tp1316
I0
s(I0
I4
I0
tp1317
I0
s(I19
I-8
F-1.5
tp1318
I0
s(I9
I2
F-1.5
tp1319
I0
s(I10
I-8
F-0.1
tp1320
I0
s(I14
I7
F-0.1
tp1321
I0
s(I0
I-8
F-0.1
tp1322
I0
s(I19
I-2
F-1.5
tp1323
I0
s(I13
I-5
F0.1
tp1324
I0
s(I18
I8
F-1.5
tp1325
I0
s(I7
I-5
F0.1
tp1326
I0
s(I6
I1
I0
tp1327
I0
s(I16
I4
F1.5
tp1328
I0
s(I1
I-8
I0
tp1329
I0
s(I9
I-8
F-0.1
tp1330
I0
s(I19
I-2
F0.1
tp1331
I0
s(I14
I6
F-0.1
tp1332
I0
s(I11
I3
F-0.1
tp1333
I0
s(I10
I5
F-0.1
tp1334
I0
s(I15
I5
I0
tp1335
I0
s(I6
I-7
F0.1
tp1336
I0
s(I7
I7
I0
tp1337
I0
s(I12
I3
I0
tp1338
I0
s(I6
I-4
F0.1
tp1339
I0
s(I1
I2
F0.1
tp1340
I0
s(I14
I-2
F-0.1
tp1341
I0
s(I3
I8
F-0.1
tp1342
I0
s(I10
I-2
F1.5
tp1343
I0
s(I13
I-6
F-0.1
tp1344
I0
s(I3
I2
F0.1
tp1345
I0
s(I0
I-2
F-1.5
tp1346
I0
s(I12
I7
F1.5
tp1347
I0
s(I4
I-4
F0.1
tp1348
I0
s(I9
I7
F-1.5
tp1349
I0
s(I13
I-8
F1.5
tp1350
I0
s(I3
I-4
F0.1
tp1351
I0
s(I13
I-6
F1.5
tp1352
I0
s(I4
I-8
F1.5
tp1353
I0
s(I2
I7
I0
tp1354
I0
s(I15
I-3
F-1.5
tp1355
I0
s(I15
I8
F-1.5
tp1356
I0
s(I16
I-6
F1.5
tp1357
I0
s(I6
I-8
F0.1
tp1358
I0
s(I10
I-6
F-1.5
tp1359
I0
s(I9
I-8
F0.1
tp1360
I0
s(I8
I2
F1.5
tp1361
I0
s(I1
I8
F0.1
tp1362
I0
s(I14
I-7
I0
tp1363
I0
s(I2
I2
I0
tp1364
I0
s(I8
I8
F-0.1
tp1365
I0
s(I18
I-1
F1.5
tp1366
I0
s(I16
I2
F-0.1
tp1367
I0
s(I10
I-3
F-0.1
tp1368
I0
s(I3
I-4
I0
tp1369
I0
s(I14
I1
F0.1
tp1370
I0
s(I14
I3
F-1.5
tp1371
I0
s(I14
I4
F0.1
tp1372
I0
s(I8
I-6
I0
tp1373
I0
s(I2
I-7
I0
tp1374
I0
s(I8
I6
F0.1
tp1375
I0
s(I10
I4
F1.5
tp1376
I0
s(I13
I-1
I0
tp1377
I0
s(I18
I7
I0
tp1378
I0
s(I15
I6
F0.1
tp1379
I0
s(I7
I-8
F-1.5
tp1380
I0
s(I4
I-2
F-1.5
tp1381
I0
s(I16
I-7
I0
tp1382
I0
s(I4
I4
F1.5
tp1383
I0
s(I6
I4
F-1.5
tp1384
I0
s(I10
I-3
I0
tp1385
I0
s(I1
I4
I0
tp1386
I0
s(I6
I-2
F-0.1
tp1387
I0
s(I4
I5
F-1.5
tp1388
I0
s(I11
I5
F-1.5
tp1389
I0
s(I8
I-5
F-0.1
tp1390
I0
s(I5
I-6
I0
tp1391
I0
s(I18
I-4
I0
tp1392
I0
s(I6
I-8
F-1.5
tp1393
I0
s(I0
I1
F-0.1
tp1394
I0
s(I1
I4
F-1.5
tp1395
I0
s(I3
I-5
F-0.1
tp1396
I0
s(I17
I-5
F-0.1
tp1397
I0
s(I10
I2
I0
tp1398
I0
s(I14
I2
I0
tp1399
I0
s(I7
I-1
F-0.1
tp1400
I0
s(I0
I-6
F-0.1
tp1401
I0
s(I17
I7
F0.1
tp1402
I0
s(I13
I1
I0
tp1403
I0
s(I16
I-3
F0.1
tp1404
I0
s(I8
I8
I0
tp1405
I0
s(I14
I4
F1.5
tp1406
I0
s(I9
I-4
F1.5
tp1407
I0
s(I5
I6
F-0.1
tp1408
I0
s(I3
I-2
I0
tp1409
I0
s(I7
I3
F1.5
tp1410
I0
s(I11
I-5
F0.1
tp1411
I0
s(I0
I-8
I0
tp1412
I0
s(I4
I-2
F-0.1
tp1413
I0
s(I15
I-7
F1.5
tp1414
I0
s(I2
I-2
F-1.5
tp1415
I0
s(I16
I-7
F-0.1
tp1416
I0
s(I13
I7
F0.1
tp1417
I0
s(I5
I5
F-0.1
tp1418
I0
s(I6
I-5
I0
tp1419
I0
s(I7
I5
F1.5
tp1420
I0
s(I18
I-8
F-1.5
tp1421
I0
s(I10
I7
F-0.1
tp1422
I0
s(I4
I-1
F-0.1
tp1423
I0
s(I7
I5
F-0.1
tp1424
I0
s(I4
I-4
F1.5
tp1425
I0
s(I9
I-8
I0
tp1426
I0
s(I17
I8
F1.5
tp1427
I0
s(I4
I-6
I0
tp1428
I0
s(I4
I3
F-0.1
tp1429
I0
s(I6
I8
F-1.5
tp1430
I0
s(I0
I4
F-1.5
tp1431
I0
s(I11
I1
F-0.1
tp1432
I0
s(I15
I6
F-1.5
tp1433
I0
s(I19
I7
F-1.5
tp1434
I0
s(I0
I-8
F1.5
tp1435
I0
s(I17
I5
F0.1
tp1436
I0
s(I0
I-1
F-0.1
tp1437
I0
s(I3
I-2
F-1.5
tp1438
I0
s(I14
I-1
F1.5
tp1439
I0
s(I10
I-1
F-0.1
tp1440
I0
s(I19
I-5
F-1.5
tp1441
I0
s(I11
I1
F0.1
tp1442
I0
s(I4
I-3
F-0.1
tp1443
I0
s(I11
I-1
F0.1
tp1444
I0
s(I17
I6
I0
tp1445
I0
s(I18
I5
F0.1
tp1446
I0
s(I0
I-4
F-1.5
tp1447
I0
s(I9
I6
I0
tp1448
I0
s(I5
I-7
F-1.5
tp1449
I0
s(I11
I-1
I0
tp1450
I0
s(I7
I5
F0.1
tp1451
I0
s(I15
I-1
F0.1
tp1452
I0
s(I16
I3
F-1.5
tp1453
I0
s(I7
I-4
F-1.5
tp1454
I0
s(I10
I-7
F-0.1
tp1455
I0
s(I18
I4
F-1.5
tp1456
I0
s(I6
I5
F-1.5
tp1457
I0
s(I3
I4
I0
tp1458
I0
s(I13
I7
F-0.1
tp1459
I0
s(I3
I-3
F0.1
tp1460
I0
s(I1
I3
I0
tp1461
I0
s(I15
I1
I0
tp1462
I0
s(I17
I3
F1.5
tp1463
I0
s(I0
I3
I0
tp1464
I0
s(I12
I6
F-0.1
tp1465
I0
s(I8
I-2
F-0.1
tp1466
I0
s(I10
I3
F1.5
tp1467
I0
s(I11
I-6
F-0.1
tp1468
I0
s(I12
I-6
F1.5
tp1469
I0
s(I16
I3
F0.1
tp1470
I0
s(I17
I7
F-0.1
tp1471
I0
s(I10
I-6
I0
tp1472
I0
s(I17
I-5
F0.1
tp1473
I0
s(I19
I3
I0
tp1474
I0
s(I14
I-5
F-1.5
tp1475
I0
s(I5
I4
I0
tp1476
I0
s(I8
I5
F-0.1
tp1477
I0
s(I17
I-6
F1.5
tp1478
I0
s(I1
I-6
F-1.5
tp1479
I0
s(I11
I-4
I0
tp1480
I0
s(I10
I6
I0
tp1481
I0
s(I6
I8
F0.1
tp1482
I0
s(I8
I-2
F0.1
tp1483
I0
s(I5
I-8
I0
tp1484
I0
s(I8
I-7
F-1.5
tp1485
I0
s(I16
I2
I0
tp1486
I0
s(I9
I-3
F1.5
tp1487
I0
s(I15
I-8
F0.1
tp1488
I0
s(I18
I-1
F-0.1
tp1489
I0
s(I19
I-1
I0
tp1490
I0
s(I14
I5
I0
tp1491
I0
s(I18
I8
F-0.1
tp1492
I0
s(I8
I6
F1.5
tp1493
I0
s(I11
I-2
F-1.5
tp1494
I0
s(I11
I-7
F1.5
tp1495
I0
s(I12
I6
F-1.5
tp1496
I0
s(I10
I-3
F-1.5
tp1497
I0
s(I14
I-3
F-1.5
tp1498
I0
s(I1
I-5
F-1.5
tp1499
I0
s(I10
I3
F-0.1
tp1500
I0
s(I12
I-5
F1.5
tp1501
I0
s(I8
I8
F0.1
tp1502
I0
s(I6
I8
F1.5
tp1503
I0
s(I6
I2
F1.5
tp1504
I0
s(I14
I7
F1.5
tp1505
I0
s(I10
I-1
I0
tp1506
I0
s(I3
I-6
F-1.5
tp1507
I0
s(I7
I2
I0
tp1508
I0
s(I12
I-6
F-0.1
tp1509
I0
s(I8
I-2
I0
tp1510
I0
s(I9
I6
F0.1
tp1511
I0
s(I6
I1
F-0.1
tp1512
I0
s(I1
I-3
F-0.1
tp1513
I0
s(I11
I6
F1.5
tp1514
I0
s(I7
I8
F1.5
tp1515
I0
s(I8
I-8
I0
tp1516
I0
s(I5
I5
F-1.5
tp1517
I0
s(I0
I4
F1.5
tp1518
I0
s(I8
I-1
F-1.5
tp1519
I0
s(I15
I7
F1.5
tp1520
I0
s(I13
I6
F-1.5
tp1521
I0
s(I2
I-4
I0
tp1522
I0
s(I10
I-2
F0.1
tp1523
I0
s(I2
I-4
F-1.5
tp1524
I0
s(I19
I2
F1.5
tp1525
I0
s(I13
I6
I0
tp1526
I0
s(I15
I-7
I0
tp1527
I0
s(I4
I-4
F-0.1
tp1528
I0
s(I11
I-5
F1.5
tp1529
I0
s(I13
I4
F-0.1
tp1530
I0
s(I18
I-4
F1.5
tp1531
I0
s(I15
I-8
F1.5
tp1532
I0
s(I14
I-2
F0.1
tp1533
I0
s(I12
I-6
I0
tp1534
I0
s(I3
I3
F-0.1
tp1535
I0
s(I9
I-1
F0.1
tp1536
I0
s(I1
I-4
F0.1
tp1537
I0
s(I17
I-2
F-0.1
tp1538
I0
s(I9
I2
I0
tp1539
I0
s(I16
I1
I0
tp1540
I0
s(I12
I-3
I0
tp1541
I0
s(I1
I-5
F1.5
tp1542
I0
s(I9
I-7
F1.5
tp1543
I0
s(I7
I-2
F1.5
tp1544
I0
s(I6
I7
F0.1
tp1545
I0
s(I10
I-5
F-0.1
tp1546
I0
s(I16
I4
F-1.5
tp1547
I0
s(I3
I3
F0.1
tp1548
I0
s(I14
I6
F0.1
tp1549
I0
s(I8
I-1
F-0.1
tp1550
I0
s(I12
I2
F-0.1
tp1551
I0
s(I2
I-1
F0.1
tp1552
I0
s(I11
I7
F1.5
tp1553
I0
s(I13
I-5
F-0.1
tp1554
I0
s(I2
I1
I0
tp1555
I0
s(I0
I-8
F0.1
tp1556
I0
s(I14
I-7
F-0.1
tp1557
I0
s(I9
I-4
I0
tp1558
I0
s(I9
I2
F1.5
tp1559
I0
s(I8
I-8
F1.5
tp1560
I0
s(I15
I-1
F-1.5
tp1561
I0
s(I13
I-3
I0
tp1562
I0
s(I7
I-1
F-1.5
tp1563
I0
s(I7
I-1
F1.5
tp1564
I0
s(I0
I-4
I0
tp1565
I0
s(I5
I8
F1.5
tp1566
I0
s(I3
I4
F-1.5
tp1567
I0
s(I1
I5
F-0.1
tp1568
I0
s(I15
I-4
F0.1
tp1569
I0
s(I6
I-7
F1.5
tp1570
I0
s(I12
I-6
F0.1
tp1571
I0
s(I4
I-5
F-1.5
tp1572
I0
s(I8
I-3
F-0.1
tp1573
I0
s(I6
I-1
F0.1
tp1574
I0
s(I14
I5
F-1.5
tp1575
I0
s(I16
I-4
F1.5
tp1576
I0
s(I13
I6
F-0.1
tp1577
I0
s(I12
I6
I0
tp1578
I0
s(I19
I-8
F0.1
tp1579
I0
s(I12
I8
I0
tp1580
I0
s(I6
I-8
F1.5
tp1581
I0
s(I4
I2
I0
tp1582
I0
s(I18
I6
F1.5
tp1583
I0
s(I10
I-1
F0.1
tp1584
I0
s(I18
I-3
F-0.1
tp1585
I0
s(I19
I-5
F-0.1
tp1586
I0
s(I15
I-1
F-0.1
tp1587
I0
s(I17
I2
F-0.1
tp1588
I0
s(I11
I-3
F-0.1
tp1589
I0
s(I3
I6
F0.1
tp1590
I0
s(I8
I1
F0.1
tp1591
I0
s(I2
I7
F-1.5
tp1592
I0
s(I19
I2
F0.1
tp1593
I0
s(I4
I6
F-1.5
tp1594
I0
s(I15
I1
F-1.5
tp1595
I0
s(I13
I-3
F1.5
tp1596
I0
s(I6
I-5
F1.5
tp1597
I0
s(I7
I4
F0.1
tp1598
I0
s(I2
I5
F0.1
tp1599
I0
s(I4
I-8
F-0.1
tp1600
I0
s(I2
I7
F1.5
tp1601
I0
s(I13
I-1
F1.5
tp1602
I0
s(I11
I6
F-0.1
tp1603
I0
s.